; Function Attrs: mustprogress nounwind uwtable
define dso_local { i32, ptr } @_ZN4llvm10sampleprof25SampleProfileWriterBinary15writeMagicIdentENS0_19SampleProfileFormatE(ptr nocapture noundef nonnull readonly align 8 dereferenceable(80) %0, i32 noundef %1) unnamed_addr #2 align 2 {
  %3 = getelementptr inbounds nuw i8, ptr %0, i64 16
  %4 = load ptr, ptr %3, align 8
  %5 = zext i32 %1 to i64
  %6 = or i64 %5, 6003388803718590976
  %7 = getelementptr inbounds nuw i8, ptr %4, i64 32
  %8 = getelementptr inbounds nuw i8, ptr %4, i64 24
  br label %9

9:                                                ; preds = %_ZN4llvm11raw_ostreamlsEc.exit.i, %2
  %.019.i = phi i64 [ %6, %2 ], [ %10, %_ZN4llvm11raw_ostreamlsEc.exit.i ]
  %10 = lshr i64 %.019.i, 7
  %.not.i = icmp ugt i64 %.019.i, 127
  %11 = trunc i64 %.019.i to i8
  %12 = or i8 %11, -128
  %.0.i = select i1 %.not.i, i8 %12, i8 %11
  %13 = load ptr, ptr %7, align 8
  %14 = load ptr, ptr %8, align 8
  %.not.i.i = icmp ult ptr %13, %14
  br i1 %.not.i.i, label %17, label %15

15:                                               ; preds = %9
  %16 = tail call noundef nonnull align 8 dereferenceable(48) ptr @_ZN4llvm11raw_ostream5writeEh(ptr noundef nonnull align 8 dereferenceable(48) %4, i8 noundef zeroext %.0.i) #22
  br label %_ZN4llvm11raw_ostreamlsEc.exit.i

17:                                               ; preds = %9
  %18 = getelementptr inbounds i8, ptr %13, i64 1
  store ptr %18, ptr %7, align 8
  store i8 %.0.i, ptr %13, align 1
  br label %_ZN4llvm11raw_ostreamlsEc.exit.i

_ZN4llvm11raw_ostreamlsEc.exit.i:                 ; preds = %17, %15
  br i1 %.not.i, label %9, label %_ZN4llvm13encodeULEB128EmRNS_11raw_ostreamEj.exit, !llvm.loop !6

_ZN4llvm13encodeULEB128EmRNS_11raw_ostreamEj.exit: ; preds = %_ZN4llvm11raw_ostreamlsEc.exit.i
  %19 = load ptr, ptr %7, align 8
  %20 = load ptr, ptr %8, align 8
  %.not.i.i7 = icmp ult ptr %19, %20
  br i1 %.not.i.i7, label %23, label %21

21:                                               ; preds = %_ZN4llvm13encodeULEB128EmRNS_11raw_ostreamEj.exit
  %22 = tail call noundef nonnull align 8 dereferenceable(48) ptr @_ZN4llvm11raw_ostream5writeEh(ptr noundef nonnull align 8 dereferenceable(48) %4, i8 noundef zeroext 103) #22
  br label %_ZN4llvm13encodeULEB128EmRNS_11raw_ostreamEj.exit9

23:                                               ; preds = %_ZN4llvm13encodeULEB128EmRNS_11raw_ostreamEj.exit
  %24 = getelementptr inbounds i8, ptr %19, i64 1
  store ptr %24, ptr %7, align 8
  store i8 103, ptr %19, align 1
  br label %_ZN4llvm13encodeULEB128EmRNS_11raw_ostreamEj.exit9

_ZN4llvm13encodeULEB128EmRNS_11raw_ostreamEj.exit9: ; preds = %21, %23
  %25 = tail call noundef nonnull align 8 dereferenceable(8) ptr @_ZN4llvm19sampleprof_categoryEv() #22
  %.fca.1.insert = insertvalue { i32, ptr } { i32 0, ptr poison }, ptr %25, 1
  ret { i32, ptr } %.fca.1.insert
}